target datalayout = "e-m:e-p270:32:32-p271:32:32-p272:64:64-i64:64-i128:128-f80:128-n8:16:32:64-S128"
target triple = "x86_64-pc-linux-gnu"

%struct.key2any_ctx_st = type { ptr, i32, i32, ptr, ptr, ptr }

; Function Attrs: nounwind uwtable
define internal void @free_asn1_data(i32 noundef %0, ptr noundef %1) #0 {
  %3 = alloca i32, align 4
  %4 = alloca ptr, align 8
  store i32 %0, ptr %3, align 4, !tbaa !27
  store ptr %1, ptr %4, align 8, !tbaa !13
  %5 = load i32, ptr %3, align 4, !tbaa !27
  switch i32 %5, label %10 [
    i32 6, label %6
    i32 16, label %8
  ]

6:                                                ; preds = %2
  %7 = load ptr, ptr %4, align 8, !tbaa !13
  call void @ASN1_OBJECT_free(ptr noundef %7)
  br label %10

8:                                                ; preds = %2
  %9 = load ptr, ptr %4, align 8, !tbaa !13
  call void @ASN1_STRING_free(ptr noundef %9)
  br label %10

10:                                               ; preds = %2, %8, %6
  ret void
}

; Function Attrs: nounwind uwtable
define internal i32 @key_to_epki_der_priv_bio(ptr noundef %0, ptr noundef %1, i32 noundef %2, ptr noundef %3, ptr noundef %4, ptr noundef %5, ptr noundef %6) #0 {
  %8 = alloca i32, align 4
  %9 = alloca ptr, align 8
  %10 = alloca ptr, align 8
  %11 = alloca i32, align 4
  %12 = alloca ptr, align 8
  %13 = alloca ptr, align 8
  %14 = alloca ptr, align 8
  %15 = alloca ptr, align 8
  %16 = alloca i32, align 4
  %17 = alloca ptr, align 8
  %18 = alloca i32, align 4
  %19 = alloca ptr, align 8
  %20 = alloca i32, align 4
  store ptr %0, ptr %9, align 8, !tbaa !85
  store ptr %1, ptr %10, align 8, !tbaa !13
  store i32 %2, ptr %11, align 4, !tbaa !27
  store ptr %3, ptr %12, align 8, !tbaa !30
  store ptr %4, ptr %13, align 8, !tbaa !13
  store ptr %5, ptr %14, align 8, !tbaa !13
  store ptr %6, ptr %15, align 8, !tbaa !71
  call void @llvm.lifetime.start.p0(i64 4, ptr %16) #8
  store i32 0, ptr %16, align 4, !tbaa !27
  call void @llvm.lifetime.start.p0(i64 8, ptr %17) #8
  store ptr null, ptr %17, align 8, !tbaa !13
  call void @llvm.lifetime.start.p0(i64 4, ptr %18) #8
  store i32 -1, ptr %18, align 4, !tbaa !27
  call void @llvm.lifetime.start.p0(i64 8, ptr %19) #8
  %21 = load ptr, ptr %15, align 8, !tbaa !71
  %22 = getelementptr inbounds nuw %struct.key2any_ctx_st, ptr %21, i32 0, i32 2
  %23 = load i32, ptr %22, align 4, !tbaa !78
  %24 = icmp ne i32 %23, 0
  br i1 %24, label %26, label %25

25:                                               ; preds = %7
  store i32 0, ptr %8, align 4
  store i32 1, ptr %20, align 4
  br label %56

26:                                               ; preds = %7
  %27 = load ptr, ptr %13, align 8, !tbaa !13
  %28 = icmp ne ptr %27, null
  br i1 %28, label %29, label %39

29:                                               ; preds = %26
  %30 = load ptr, ptr %13, align 8, !tbaa !13
  %31 = load ptr, ptr %10, align 8, !tbaa !13
  %32 = load i32, ptr %11, align 4, !tbaa !27
  %33 = load ptr, ptr %15, align 8, !tbaa !71
  %34 = getelementptr inbounds nuw %struct.key2any_ctx_st, ptr %33, i32 0, i32 1
  %35 = load i32, ptr %34, align 8, !tbaa !76
  %36 = call i32 %30(ptr noundef %31, i32 noundef %32, i32 noundef %35, ptr noundef %17, ptr noundef %18)
  %37 = icmp ne i32 %36, 0
  br i1 %37, label %39, label %38

38:                                               ; preds = %29
  store i32 0, ptr %8, align 4
  store i32 1, ptr %20, align 4
  br label %56

39:                                               ; preds = %29, %26
  %40 = load ptr, ptr %10, align 8, !tbaa !13
  %41 = load i32, ptr %11, align 4, !tbaa !27
  %42 = load ptr, ptr %17, align 8, !tbaa !13
  %43 = load i32, ptr %18, align 4, !tbaa !27
  %44 = load ptr, ptr %14, align 8, !tbaa !13
  %45 = load ptr, ptr %15, align 8, !tbaa !71
  %46 = call ptr @key_to_encp8(ptr noundef %40, i32 noundef %41, ptr noundef %42, i32 noundef %43, ptr noundef %44, ptr noundef %45)
  store ptr %46, ptr %19, align 8, !tbaa !99
  %47 = load ptr, ptr %19, align 8, !tbaa !99
  %48 = icmp ne ptr %47, null
  br i1 %48, label %49, label %53

49:                                               ; preds = %39
  %50 = load ptr, ptr %9, align 8, !tbaa !85
  %51 = load ptr, ptr %19, align 8, !tbaa !99
  %52 = call i32 @i2d_PKCS8_bio(ptr noundef %50, ptr noundef %51)
  store i32 %52, ptr %16, align 4, !tbaa !27
  br label %53

53:                                               ; preds = %49, %39
  %54 = load ptr, ptr %19, align 8, !tbaa !99
  call void @X509_SIG_free(ptr noundef %54)
  %55 = load i32, ptr %16, align 4, !tbaa !27
  store i32 %55, ptr %8, align 4
  store i32 1, ptr %20, align 4
  br label %56

56:                                               ; preds = %53, %38, %25
  call void @llvm.lifetime.end.p0(i64 8, ptr %19) #8
  call void @llvm.lifetime.end.p0(i64 4, ptr %18) #8
  call void @llvm.lifetime.end.p0(i64 8, ptr %17) #8
  call void @llvm.lifetime.end.p0(i64 4, ptr %16) #8
  %57 = load i32, ptr %8, align 4
  ret i32 %57
}

; Function Attrs: nounwind uwtable
define internal i32 @key_to_pki_der_priv_bio(ptr noundef %0, ptr noundef %1, i32 noundef %2, ptr noundef %3, ptr noundef %4, ptr noundef %5, ptr noundef %6) #0 {
  %8 = alloca i32, align 4
  %9 = alloca ptr, align 8
  %10 = alloca ptr, align 8
  %11 = alloca i32, align 4
  %12 = alloca ptr, align 8
  %13 = alloca ptr, align 8
  %14 = alloca ptr, align 8
  %15 = alloca ptr, align 8
  %16 = alloca i32, align 4
  %17 = alloca ptr, align 8
  %18 = alloca i32, align 4
  %19 = alloca ptr, align 8
  %20 = alloca i32, align 4
  store ptr %0, ptr %9, align 8, !tbaa !85
  store ptr %1, ptr %10, align 8, !tbaa !13
  store i32 %2, ptr %11, align 4, !tbaa !27
  store ptr %3, ptr %12, align 8, !tbaa !30
  store ptr %4, ptr %13, align 8, !tbaa !13
  store ptr %5, ptr %14, align 8, !tbaa !13
  store ptr %6, ptr %15, align 8, !tbaa !71
  call void @llvm.lifetime.start.p0(i64 4, ptr %16) #8
  store i32 0, ptr %16, align 4, !tbaa !27
  call void @llvm.lifetime.start.p0(i64 8, ptr %17) #8
  store ptr null, ptr %17, align 8, !tbaa !13
  call void @llvm.lifetime.start.p0(i64 4, ptr %18) #8
  store i32 -1, ptr %18, align 4, !tbaa !27
  call void @llvm.lifetime.start.p0(i64 8, ptr %19) #8
  %21 = load ptr, ptr %15, align 8, !tbaa !71
  %22 = getelementptr inbounds nuw %struct.key2any_ctx_st, ptr %21, i32 0, i32 2
  %23 = load i32, ptr %22, align 4, !tbaa !78
  %24 = icmp ne i32 %23, 0
  br i1 %24, label %25, label %34

25:                                               ; preds = %7
  %26 = load ptr, ptr %9, align 8, !tbaa !85
  %27 = load ptr, ptr %10, align 8, !tbaa !13
  %28 = load i32, ptr %11, align 4, !tbaa !27
  %29 = load ptr, ptr %12, align 8, !tbaa !30
  %30 = load ptr, ptr %13, align 8, !tbaa !13
  %31 = load ptr, ptr %14, align 8, !tbaa !13
  %32 = load ptr, ptr %15, align 8, !tbaa !71
  %33 = call i32 @key_to_epki_der_priv_bio(ptr noundef %26, ptr noundef %27, i32 noundef %28, ptr noundef %29, ptr noundef %30, ptr noundef %31, ptr noundef %32)
  store i32 %33, ptr %8, align 4
  store i32 1, ptr %20, align 4
  br label %66

34:                                               ; preds = %7
  %35 = load ptr, ptr %13, align 8, !tbaa !13
  %36 = icmp ne ptr %35, null
  br i1 %36, label %37, label %47

37:                                               ; preds = %34
  %38 = load ptr, ptr %13, align 8, !tbaa !13
  %39 = load ptr, ptr %10, align 8, !tbaa !13
  %40 = load i32, ptr %11, align 4, !tbaa !27
  %41 = load ptr, ptr %15, align 8, !tbaa !71
  %42 = getelementptr inbounds nuw %struct.key2any_ctx_st, ptr %41, i32 0, i32 1
  %43 = load i32, ptr %42, align 8, !tbaa !76
  %44 = call i32 %38(ptr noundef %39, i32 noundef %40, i32 noundef %43, ptr noundef %17, ptr noundef %18)
  %45 = icmp ne i32 %44, 0
  br i1 %45, label %47, label %46

46:                                               ; preds = %37
  store i32 0, ptr %8, align 4
  store i32 1, ptr %20, align 4
  br label %66

47:                                               ; preds = %37, %34
  %48 = load ptr, ptr %10, align 8, !tbaa !13
  %49 = load i32, ptr %11, align 4, !tbaa !27
  %50 = load ptr, ptr %17, align 8, !tbaa !13
  %51 = load i32, ptr %18, align 4, !tbaa !27
  %52 = load ptr, ptr %14, align 8, !tbaa !13
  %53 = call ptr @key_to_p8info(ptr noundef %48, i32 noundef %49, ptr noundef %50, i32 noundef %51, ptr noundef %52)
  store ptr %53, ptr %19, align 8, !tbaa !89
  %54 = load ptr, ptr %19, align 8, !tbaa !89
  %55 = icmp ne ptr %54, null
  br i1 %55, label %56, label %60

56:                                               ; preds = %47
  %57 = load ptr, ptr %9, align 8, !tbaa !85
  %58 = load ptr, ptr %19, align 8, !tbaa !89
  %59 = call i32 @i2d_PKCS8_PRIV_KEY_INFO_bio(ptr noundef %57, ptr noundef %58)
  store i32 %59, ptr %16, align 4, !tbaa !27
  br label %63

60:                                               ; preds = %47
  %61 = load i32, ptr %18, align 4, !tbaa !27
  %62 = load ptr, ptr %17, align 8, !tbaa !13
  call void @free_asn1_data(i32 noundef %61, ptr noundef %62)
  br label %63

63:                                               ; preds = %60, %56
  %64 = load ptr, ptr %19, align 8, !tbaa !89
  call void @PKCS8_PRIV_KEY_INFO_free(ptr noundef %64)
  %65 = load i32, ptr %16, align 4, !tbaa !27
  store i32 %65, ptr %8, align 4
  store i32 1, ptr %20, align 4
  br label %66

66:                                               ; preds = %63, %46, %25
  call void @llvm.lifetime.end.p0(i64 8, ptr %19) #8
  call void @llvm.lifetime.end.p0(i64 4, ptr %18) #8
  call void @llvm.lifetime.end.p0(i64 8, ptr %17) #8
  call void @llvm.lifetime.end.p0(i64 4, ptr %16) #8
  %67 = load i32, ptr %8, align 4
  ret i32 %67
}