; Function Attrs: nounwind uwtable
define internal fastcc i32 @key_to_pki_der_priv_bio(ptr noundef %0, ptr noundef %1, i32 noundef %2, ptr noundef readonly captures(address_is_null) %3, ptr noundef readonly captures(none) %4, ptr noundef readonly captures(none) %5) unnamed_addr #0 {
  %7 = alloca ptr, align 8
  %8 = alloca i32, align 4
  %9 = alloca ptr, align 8
  %10 = alloca i32, align 4
  call void @llvm.lifetime.start.p0(i64 8, ptr nonnull %9) #16
  store ptr null, ptr %9, align 8, !tbaa !10
  call void @llvm.lifetime.start.p0(i64 4, ptr nonnull %10) #16
  store i32 -1, ptr %10, align 4, !tbaa !11
  %11 = getelementptr inbounds nuw i8, ptr %5, i64 12
  %12 = load i32, ptr %11, align 4, !tbaa !63
  %.not = icmp eq i32 %12, 0
  br i1 %.not, label %25, label %13

13:                                               ; preds = %6
  call void @llvm.lifetime.start.p0(i64 8, ptr nonnull %7) #16
  store ptr null, ptr %7, align 8, !tbaa !10
  call void @llvm.lifetime.start.p0(i64 4, ptr nonnull %8) #16
  store i32 -1, ptr %8, align 4, !tbaa !11
  %.not18.i = icmp eq ptr %3, null
  br i1 %.not18.i, label %18, label %14

14:                                               ; preds = %13
  %15 = getelementptr inbounds nuw i8, ptr %5, i64 8
  %16 = load i32, ptr %15, align 8, !tbaa !61
  %17 = call i32 %3(ptr noundef %1, i32 noundef %2, i32 noundef %16, ptr noundef nonnull %7, ptr noundef nonnull %8) #16
  %.not19.i = icmp eq i32 %17, 0
  br i1 %.not19.i, label %key_to_epki_der_priv_bio.exit, label %._crit_edge.i

._crit_edge.i:                                    ; preds = %14
  %.pre.i = load ptr, ptr %7, align 8, !tbaa !10
  %.pre21.i = load i32, ptr %8, align 4, !tbaa !11
  br label %18

18:                                               ; preds = %._crit_edge.i, %13
  %19 = phi i32 [ %.pre21.i, %._crit_edge.i ], [ -1, %13 ]
  %20 = phi ptr [ %.pre.i, %._crit_edge.i ], [ null, %13 ]
  %21 = call fastcc ptr @key_to_encp8(ptr noundef %1, i32 noundef %2, ptr noundef %20, i32 noundef %19, ptr noundef readonly %4, ptr noundef nonnull readonly %5)
  %.not20.i = icmp eq ptr %21, null
  br i1 %.not20.i, label %24, label %22

22:                                               ; preds = %18
  %23 = call i32 @i2d_PKCS8_bio(ptr noundef %0, ptr noundef nonnull %21) #16
  br label %24

24:                                               ; preds = %22, %18
  %.015.i = phi i32 [ %23, %22 ], [ 0, %18 ]
  call void @X509_SIG_free(ptr noundef %21) #16
  br label %key_to_epki_der_priv_bio.exit

key_to_epki_der_priv_bio.exit:                    ; preds = %14, %24
  %.0.i = phi i32 [ %.015.i, %24 ], [ 0, %14 ]
  call void @llvm.lifetime.end.p0(i64 4, ptr nonnull %8) #16
  call void @llvm.lifetime.end.p0(i64 8, ptr nonnull %7) #16
  br label %38

25:                                               ; preds = %6
  %.not24 = icmp eq ptr %3, null
  br i1 %.not24, label %._crit_edge, label %26

26:                                               ; preds = %25
  %27 = getelementptr inbounds nuw i8, ptr %5, i64 8
  %28 = load i32, ptr %27, align 8, !tbaa !61
  %29 = call i32 %3(ptr noundef %1, i32 noundef %2, i32 noundef %28, ptr noundef nonnull %9, ptr noundef nonnull %10) #16
  %.not25 = icmp eq i32 %29, 0
  br i1 %.not25, label %38, label %._crit_edge

._crit_edge:                                      ; preds = %26, %25
  %30 = call fastcc ptr @key_to_p8info(ptr noundef %1, i32 noundef %2, ptr noundef %4)
  %.not26 = icmp eq ptr %30, null
  br i1 %.not26, label %33, label %31

31:                                               ; preds = %._crit_edge
  %32 = call i32 @i2d_PKCS8_PRIV_KEY_INFO_bio(ptr noundef %0, ptr noundef nonnull %30) #16
  br label %free_asn1_data.exit

33:                                               ; preds = %._crit_edge
  %34 = load i32, ptr %10, align 4, !tbaa !11
  %35 = load ptr, ptr %9, align 8, !tbaa !10
  switch i32 %34, label %free_asn1_data.exit [
    i32 6, label %36
    i32 16, label %37
  ]

36:                                               ; preds = %33
  call void @ASN1_OBJECT_free(ptr noundef %35) #16
  br label %free_asn1_data.exit

37:                                               ; preds = %33
  call void @ASN1_STRING_free(ptr noundef %35) #16
  br label %free_asn1_data.exit

free_asn1_data.exit:                              ; preds = %37, %36, %33, %31
  %.021 = phi i32 [ %32, %31 ], [ 0, %33 ], [ 0, %36 ], [ 0, %37 ]
  call void @PKCS8_PRIV_KEY_INFO_free(ptr noundef %30) #16
  br label %38

38:                                               ; preds = %26, %free_asn1_data.exit, %key_to_epki_der_priv_bio.exit
  %.0 = phi i32 [ %.0.i, %key_to_epki_der_priv_bio.exit ], [ %.021, %free_asn1_data.exit ], [ 0, %26 ]
  call void @llvm.lifetime.end.p0(i64 4, ptr nonnull %10) #16
  call void @llvm.lifetime.end.p0(i64 8, ptr nonnull %9) #16
  ret i32 %.0
}